; Function Attrs: nounwind uwtable
define internal fastcc range(i32 -1, 1) i32 @H5C__mark_flush_dep_unserialized(ptr noundef readonly captures(none) %0) unnamed_addr #0 {
  %2 = load i8, ptr @H5C_init_g, align 1, !tbaa !3, !range !7, !noundef !8
  %3 = trunc nuw i8 %2 to i1
  %4 = load i8, ptr @H5_libterm_g, align 1, !range !7
  %5 = trunc nuw i8 %4 to i1
  %6 = xor i1 %5, true
  %7 = select i1 %3, i1 true, i1 %6
  br i1 %7, label %.preheader, label %.loopexit, !prof !9

.preheader:                                       ; preds = %1
  %8 = getelementptr inbounds nuw i8, ptr %0, i64 80
  %9 = load i32, ptr %8, align 8, !tbaa !105
  %.not15 = icmp eq i32 %9, 0
  br i1 %.not15, label %.loopexit, label %.lr.ph

.lr.ph:                                           ; preds = %.preheader
  %10 = getelementptr inbounds nuw i8, ptr %0, i64 72
  br label %11

11:                                               ; preds = %.lr.ph, %30
  %12 = phi i32 [ %9, %.lr.ph ], [ %31, %30 ]
  %indvars.iv = phi i64 [ 0, %.lr.ph ], [ %indvars.iv.next, %30 ]
  %13 = load ptr, ptr %10, align 8, !tbaa !107
  %14 = getelementptr inbounds nuw ptr, ptr %13, i64 %indvars.iv
  %15 = load ptr, ptr %14, align 8, !tbaa !77
  %16 = getelementptr inbounds nuw i8, ptr %15, i64 96
  %17 = load i32, ptr %16, align 8, !tbaa !125
  %18 = add i32 %17, 1
  store i32 %18, ptr %16, align 8, !tbaa !125
  %19 = getelementptr inbounds nuw i8, ptr %15, i64 40
  %20 = load ptr, ptr %19, align 8, !tbaa !65
  %21 = getelementptr inbounds nuw i8, ptr %20, i64 80
  %22 = load ptr, ptr %21, align 8, !tbaa !74
  %.not = icmp eq ptr %22, null
  br i1 %.not, label %30, label %23

23:                                               ; preds = %11
  %24 = tail call i32 %22(i32 noundef 8, ptr noundef nonnull %15) #9
  %25 = icmp slt i32 %24, 0
  br i1 %25, label %26, label %._crit_edge

._crit_edge:                                      ; preds = %23
  %.pre = load i32, ptr %8, align 8, !tbaa !105
  br label %30

26:                                               ; preds = %23
  %27 = load i64, ptr @H5E_CACHE_g, align 8, !tbaa !59
  %28 = load i64, ptr @H5E_CANTNOTIFY_g, align 8, !tbaa !59
  %29 = tail call i32 (ptr, ptr, i32, i64, i64, ptr, ...) @H5E_printf_stack(ptr noundef nonnull @.str, ptr noundef nonnull @__func__.H5C__mark_flush_dep_unserialized, i32 noundef 1480, i64 noundef %27, i64 noundef %28, ptr noundef nonnull @.str.64) #9
  br label %.loopexit

30:                                               ; preds = %._crit_edge, %11
  %31 = phi i32 [ %.pre, %._crit_edge ], [ %12, %11 ]
  %indvars.iv.next = add nuw nsw i64 %indvars.iv, 1
  %32 = zext i32 %31 to i64
  %33 = icmp samesign ult i64 %indvars.iv.next, %32
  br i1 %33, label %11, label %.loopexit, !llvm.loop !148

.loopexit:                                        ; preds = %30, %.preheader, %26, %1
  %.0 = phi i32 [ -1, %26 ], [ 0, %1 ], [ 0, %.preheader ], [ 0, %30 ]
  ret i32 %.0
}